target datalayout = "e-m:e-p270:32:32-p271:32:32-p272:64:64-i64:64-i128:128-f80:128-n8:16:32:64-S128"
target triple = "x86_64-pc-linux-gnu"

%struct.SortSupportData = type { ptr, i32, i8, i8, i16, ptr, ptr, i8, ptr, ptr, ptr }
%struct.SortTuple = type { ptr, i64, i8, i32 }

; Function Attrs: inlinehint nounwind uwtable
define internal i32 @ApplySortComparator(i64 noundef %0, i1 noundef zeroext %1, i64 noundef %2, i1 noundef zeroext %3, ptr noundef %4) #4 {
  %6 = alloca i64, align 8
  %7 = alloca i8, align 1
  %8 = alloca i64, align 8
  %9 = alloca i8, align 1
  %10 = alloca ptr, align 8
  %11 = alloca i32, align 4
  store i64 %0, ptr %6, align 8
  %12 = zext i1 %1 to i8
  store i8 %12, ptr %7, align 1
  store i64 %2, ptr %8, align 8
  %13 = zext i1 %3 to i8
  store i8 %13, ptr %9, align 1
  store ptr %4, ptr %10, align 8
  call void @llvm.lifetime.start.p0(i64 4, ptr %11) #9
  %14 = load i8, ptr %7, align 1, !range !4, !noundef !5
  %15 = trunc i8 %14 to i1
  br i1 %15, label %16, label %29

16:                                               ; preds = %5
  %17 = load i8, ptr %9, align 1, !range !4, !noundef !5
  %18 = trunc i8 %17 to i1
  br i1 %18, label %19, label %20

19:                                               ; preds = %16
  store i32 0, ptr %11, align 4
  br label %28

20:                                               ; preds = %16
  %21 = load ptr, ptr %10, align 8
  %22 = getelementptr inbounds nuw %struct.SortSupportData, ptr %21, i32 0, i32 3
  %23 = load i8, ptr %22, align 1, !range !4, !noundef !5
  %24 = trunc i8 %23 to i1
  br i1 %24, label %25, label %26

25:                                               ; preds = %20
  store i32 -1, ptr %11, align 4
  br label %27

26:                                               ; preds = %20
  store i32 1, ptr %11, align 4
  br label %27

27:                                               ; preds = %26, %25
  br label %28

28:                                               ; preds = %27, %19
  br label %63

29:                                               ; preds = %5
  %30 = load i8, ptr %9, align 1, !range !4, !noundef !5
  %31 = trunc i8 %30 to i1
  br i1 %31, label %32, label %40

32:                                               ; preds = %29
  %33 = load ptr, ptr %10, align 8
  %34 = getelementptr inbounds nuw %struct.SortSupportData, ptr %33, i32 0, i32 3
  %35 = load i8, ptr %34, align 1, !range !4, !noundef !5
  %36 = trunc i8 %35 to i1
  br i1 %36, label %37, label %38

37:                                               ; preds = %32
  store i32 1, ptr %11, align 4
  br label %39

38:                                               ; preds = %32
  store i32 -1, ptr %11, align 4
  br label %39

39:                                               ; preds = %38, %37
  br label %62

40:                                               ; preds = %29
  %41 = load ptr, ptr %10, align 8
  %42 = getelementptr inbounds nuw %struct.SortSupportData, ptr %41, i32 0, i32 6
  %43 = load ptr, ptr %42, align 8
  %44 = load i64, ptr %6, align 8
  %45 = load i64, ptr %8, align 8
  %46 = load ptr, ptr %10, align 8
  %47 = call i32 %43(i64 noundef %44, i64 noundef %45, ptr noundef %46)
  store i32 %47, ptr %11, align 4
  %48 = load ptr, ptr %10, align 8
  %49 = getelementptr inbounds nuw %struct.SortSupportData, ptr %48, i32 0, i32 2
  %50 = load i8, ptr %49, align 4, !range !4, !noundef !5
  %51 = trunc i8 %50 to i1
  br i1 %51, label %52, label %61

52:                                               ; preds = %40
  %53 = load i32, ptr %11, align 4
  %54 = icmp slt i32 %53, 0
  br i1 %54, label %55, label %56

55:                                               ; preds = %52
  br label %59

56:                                               ; preds = %52
  %57 = load i32, ptr %11, align 4
  %58 = sub i32 0, %57
  br label %59

59:                                               ; preds = %56, %55
  %60 = phi i32 [ 1, %55 ], [ %58, %56 ]
  store i32 %60, ptr %11, align 4
  br label %61

61:                                               ; preds = %59, %40
  br label %62

62:                                               ; preds = %61, %39
  br label %63

63:                                               ; preds = %62, %28
  %64 = load i32, ptr %11, align 4
  call void @llvm.lifetime.end.p0(i64 4, ptr %11) #9
  ret i32 %64
}

; Function Attrs: noinline nounwind uwtable
define internal ptr @qsort_ssup_med3(ptr noundef %0, ptr noundef %1, ptr noundef %2, ptr noundef %3) #8 {
  %5 = alloca ptr, align 8
  %6 = alloca ptr, align 8
  %7 = alloca ptr, align 8
  %8 = alloca ptr, align 8
  store ptr %0, ptr %5, align 8
  store ptr %1, ptr %6, align 8
  store ptr %2, ptr %7, align 8
  store ptr %3, ptr %8, align 8
  %9 = load ptr, ptr %5, align 8
  %10 = getelementptr inbounds nuw %struct.SortTuple, ptr %9, i32 0, i32 1
  %11 = load i64, ptr %10, align 8
  %12 = load ptr, ptr %5, align 8
  %13 = getelementptr inbounds nuw %struct.SortTuple, ptr %12, i32 0, i32 2
  %14 = load i8, ptr %13, align 8, !range !4, !noundef !5
  %15 = trunc i8 %14 to i1
  %16 = load ptr, ptr %6, align 8
  %17 = getelementptr inbounds nuw %struct.SortTuple, ptr %16, i32 0, i32 1
  %18 = load i64, ptr %17, align 8
  %19 = load ptr, ptr %6, align 8
  %20 = getelementptr inbounds nuw %struct.SortTuple, ptr %19, i32 0, i32 2
  %21 = load i8, ptr %20, align 8, !range !4, !noundef !5
  %22 = trunc i8 %21 to i1
  %23 = load ptr, ptr %8, align 8
  %24 = call i32 @ApplySortComparator(i64 noundef %11, i1 noundef zeroext %15, i64 noundef %18, i1 noundef zeroext %22, ptr noundef %23)
  %25 = icmp slt i32 %24, 0
  br i1 %25, label %26, label %72

26:                                               ; preds = %4
  %27 = load ptr, ptr %6, align 8
  %28 = getelementptr inbounds nuw %struct.SortTuple, ptr %27, i32 0, i32 1
  %29 = load i64, ptr %28, align 8
  %30 = load ptr, ptr %6, align 8
  %31 = getelementptr inbounds nuw %struct.SortTuple, ptr %30, i32 0, i32 2
  %32 = load i8, ptr %31, align 8, !range !4, !noundef !5
  %33 = trunc i8 %32 to i1
  %34 = load ptr, ptr %7, align 8
  %35 = getelementptr inbounds nuw %struct.SortTuple, ptr %34, i32 0, i32 1
  %36 = load i64, ptr %35, align 8
  %37 = load ptr, ptr %7, align 8
  %38 = getelementptr inbounds nuw %struct.SortTuple, ptr %37, i32 0, i32 2
  %39 = load i8, ptr %38, align 8, !range !4, !noundef !5
  %40 = trunc i8 %39 to i1
  %41 = load ptr, ptr %8, align 8
  %42 = call i32 @ApplySortComparator(i64 noundef %29, i1 noundef zeroext %33, i64 noundef %36, i1 noundef zeroext %40, ptr noundef %41)
  %43 = icmp slt i32 %42, 0
  br i1 %43, label %44, label %46

44:                                               ; preds = %26
  %45 = load ptr, ptr %6, align 8
  br label %70

46:                                               ; preds = %26
  %47 = load ptr, ptr %5, align 8
  %48 = getelementptr inbounds nuw %struct.SortTuple, ptr %47, i32 0, i32 1
  %49 = load i64, ptr %48, align 8
  %50 = load ptr, ptr %5, align 8
  %51 = getelementptr inbounds nuw %struct.SortTuple, ptr %50, i32 0, i32 2
  %52 = load i8, ptr %51, align 8, !range !4, !noundef !5
  %53 = trunc i8 %52 to i1
  %54 = load ptr, ptr %7, align 8
  %55 = getelementptr inbounds nuw %struct.SortTuple, ptr %54, i32 0, i32 1
  %56 = load i64, ptr %55, align 8
  %57 = load ptr, ptr %7, align 8
  %58 = getelementptr inbounds nuw %struct.SortTuple, ptr %57, i32 0, i32 2
  %59 = load i8, ptr %58, align 8, !range !4, !noundef !5
  %60 = trunc i8 %59 to i1
  %61 = load ptr, ptr %8, align 8
  %62 = call i32 @ApplySortComparator(i64 noundef %49, i1 noundef zeroext %53, i64 noundef %56, i1 noundef zeroext %60, ptr noundef %61)
  %63 = icmp slt i32 %62, 0
  br i1 %63, label %64, label %66

64:                                               ; preds = %46
  %65 = load ptr, ptr %7, align 8
  br label %68

66:                                               ; preds = %46
  %67 = load ptr, ptr %5, align 8
  br label %68

68:                                               ; preds = %66, %64
  %69 = phi ptr [ %65, %64 ], [ %67, %66 ]
  br label %70

70:                                               ; preds = %68, %44
  %71 = phi ptr [ %45, %44 ], [ %69, %68 ]
  br label %118

72:                                               ; preds = %4
  %73 = load ptr, ptr %6, align 8
  %74 = getelementptr inbounds nuw %struct.SortTuple, ptr %73, i32 0, i32 1
  %75 = load i64, ptr %74, align 8
  %76 = load ptr, ptr %6, align 8
  %77 = getelementptr inbounds nuw %struct.SortTuple, ptr %76, i32 0, i32 2
  %78 = load i8, ptr %77, align 8, !range !4, !noundef !5
  %79 = trunc i8 %78 to i1
  %80 = load ptr, ptr %7, align 8
  %81 = getelementptr inbounds nuw %struct.SortTuple, ptr %80, i32 0, i32 1
  %82 = load i64, ptr %81, align 8
  %83 = load ptr, ptr %7, align 8
  %84 = getelementptr inbounds nuw %struct.SortTuple, ptr %83, i32 0, i32 2
  %85 = load i8, ptr %84, align 8, !range !4, !noundef !5
  %86 = trunc i8 %85 to i1
  %87 = load ptr, ptr %8, align 8
  %88 = call i32 @ApplySortComparator(i64 noundef %75, i1 noundef zeroext %79, i64 noundef %82, i1 noundef zeroext %86, ptr noundef %87)
  %89 = icmp sgt i32 %88, 0
  br i1 %89, label %90, label %92

90:                                               ; preds = %72
  %91 = load ptr, ptr %6, align 8
  br label %116

92:                                               ; preds = %72
  %93 = load ptr, ptr %5, align 8
  %94 = getelementptr inbounds nuw %struct.SortTuple, ptr %93, i32 0, i32 1
  %95 = load i64, ptr %94, align 8
  %96 = load ptr, ptr %5, align 8
  %97 = getelementptr inbounds nuw %struct.SortTuple, ptr %96, i32 0, i32 2
  %98 = load i8, ptr %97, align 8, !range !4, !noundef !5
  %99 = trunc i8 %98 to i1
  %100 = load ptr, ptr %7, align 8
  %101 = getelementptr inbounds nuw %struct.SortTuple, ptr %100, i32 0, i32 1
  %102 = load i64, ptr %101, align 8
  %103 = load ptr, ptr %7, align 8
  %104 = getelementptr inbounds nuw %struct.SortTuple, ptr %103, i32 0, i32 2
  %105 = load i8, ptr %104, align 8, !range !4, !noundef !5
  %106 = trunc i8 %105 to i1
  %107 = load ptr, ptr %8, align 8
  %108 = call i32 @ApplySortComparator(i64 noundef %95, i1 noundef zeroext %99, i64 noundef %102, i1 noundef zeroext %106, ptr noundef %107)
  %109 = icmp slt i32 %108, 0
  br i1 %109, label %110, label %112

110:                                              ; preds = %92
  %111 = load ptr, ptr %5, align 8
  br label %114

112:                                              ; preds = %92
  %113 = load ptr, ptr %7, align 8
  br label %114

114:                                              ; preds = %112, %110
  %115 = phi ptr [ %111, %110 ], [ %113, %112 ]
  br label %116

116:                                              ; preds = %114, %90
  %117 = phi ptr [ %91, %90 ], [ %115, %114 ]
  br label %118

118:                                              ; preds = %116, %70
  %119 = phi ptr [ %71, %70 ], [ %117, %116 ]
  ret ptr %119
}