; Function Attrs: noinline nounwind uwtable
define internal fastcc noundef ptr @qsort_ssup_med3(ptr noundef readonly captures(ret: address, provenance) %0, ptr noundef readonly captures(ret: address, provenance) %1, ptr noundef readonly captures(ret: address, provenance) %2, ptr noundef nonnull %3) unnamed_addr #8 {
  %5 = getelementptr inbounds nuw i8, ptr %0, i64 8
  %6 = load i64, ptr %5, align 8
  %7 = getelementptr inbounds nuw i8, ptr %0, i64 16
  %8 = load i8, ptr %7, align 8, !range !4, !noundef !5
  %9 = trunc nuw i8 %8 to i1
  %10 = getelementptr inbounds nuw i8, ptr %1, i64 8
  %11 = load i64, ptr %10, align 8
  %12 = getelementptr inbounds nuw i8, ptr %1, i64 16
  %13 = load i8, ptr %12, align 8, !range !4, !noundef !5
  %14 = trunc nuw i8 %13 to i1
  br i1 %9, label %15, label %25

15:                                               ; preds = %4
  br i1 %14, label %ApplySortComparator.exit.thread.thread, label %16

16:                                               ; preds = %15
  %17 = getelementptr inbounds nuw i8, ptr %3, i64 13
  %18 = load i8, ptr %17, align 1, !range !4, !noundef !5
  %19 = trunc nuw i8 %18 to i1
  %20 = getelementptr inbounds nuw i8, ptr %2, i64 8
  %21 = load i64, ptr %20, align 8
  %22 = getelementptr inbounds nuw i8, ptr %2, i64 16
  %23 = load i8, ptr %22, align 8, !range !4, !noundef !5
  %24 = trunc nuw i8 %23 to i1
  br i1 %19, label %ApplySortComparator.exit.thread51.thread92, label %ApplySortComparator.exit.thread.thread93

ApplySortComparator.exit.thread.thread93:         ; preds = %16
  br i1 %24, label %130, label %136

ApplySortComparator.exit.thread51.thread92:       ; preds = %16
  br i1 %24, label %59, label %65

25:                                               ; preds = %4
  br i1 %14, label %26, label %34

26:                                               ; preds = %25
  %27 = getelementptr inbounds nuw i8, ptr %3, i64 13
  %28 = load i8, ptr %27, align 1, !range !4, !noundef !5
  %29 = trunc nuw i8 %28 to i1
  br i1 %29, label %ApplySortComparator.exit.thread.thread, label %ApplySortComparator.exit.thread51.thread

ApplySortComparator.exit.thread51.thread:         ; preds = %26
  %30 = getelementptr inbounds nuw i8, ptr %2, i64 8
  %31 = getelementptr inbounds nuw i8, ptr %2, i64 16
  %32 = load i8, ptr %31, align 8, !range !4, !noundef !5
  %33 = trunc nuw i8 %32 to i1
  br i1 %33, label %ApplySortComparator.exit34.thread, label %51

34:                                               ; preds = %25
  %35 = getelementptr inbounds nuw i8, ptr %3, i64 24
  %36 = load ptr, ptr %35, align 8
  %37 = tail call i32 %36(i64 noundef %6, i64 noundef %11, ptr noundef nonnull %3) #13
  %38 = getelementptr inbounds nuw i8, ptr %3, i64 12
  %39 = load i8, ptr %38, align 4, !range !4, !noundef !5
  %40 = trunc nuw i8 %39 to i1
  br i1 %40, label %41, label %ApplySortComparator.exit

41:                                               ; preds = %34
  %42 = icmp slt i32 %37, 0
  %43 = sub nsw i32 0, %37
  br i1 %42, label %.ApplySortComparator.exit.thread_crit_edge, label %ApplySortComparator.exit

.ApplySortComparator.exit.thread_crit_edge:       ; preds = %41
  %.pre87 = load i64, ptr %10, align 8
  %.pre = load i8, ptr %12, align 8, !range !4
  br label %ApplySortComparator.exit.thread

ApplySortComparator.exit:                         ; preds = %41, %34
  %.0.i = phi i32 [ %43, %41 ], [ %37, %34 ]
  %44 = icmp slt i32 %.0.i, 0
  %.pre88 = load i64, ptr %10, align 8
  %.pre89 = load i8, ptr %12, align 8, !range !4
  br i1 %44, label %ApplySortComparator.exit.thread51, label %ApplySortComparator.exit.thread

ApplySortComparator.exit.thread51:                ; preds = %ApplySortComparator.exit
  %45 = trunc nuw i8 %.pre89 to i1
  %46 = getelementptr inbounds nuw i8, ptr %2, i64 8
  %47 = getelementptr inbounds nuw i8, ptr %2, i64 16
  %48 = load i8, ptr %47, align 8, !range !4, !noundef !5
  %49 = trunc nuw i8 %48 to i1
  br i1 %45, label %50, label %57

50:                                               ; preds = %ApplySortComparator.exit.thread51
  br i1 %49, label %ApplySortComparator.exit34.thread, label %51

51:                                               ; preds = %ApplySortComparator.exit.thread51.thread, %50
  %52 = phi ptr [ %30, %ApplySortComparator.exit.thread51.thread ], [ %46, %50 ]
  %53 = phi ptr [ %31, %ApplySortComparator.exit.thread51.thread ], [ %47, %50 ]
  %54 = getelementptr inbounds nuw i8, ptr %3, i64 13
  %55 = load i8, ptr %54, align 1, !range !4, !noundef !5
  %56 = trunc nuw i8 %55 to i1
  br i1 %56, label %ApplySortComparator.exit34.thread58, label %ApplySortComparator.exit34.thread

57:                                               ; preds = %ApplySortComparator.exit.thread51
  %58 = load i64, ptr %46, align 8
  br i1 %49, label %59, label %65

59:                                               ; preds = %ApplySortComparator.exit.thread51.thread92, %57
  %60 = phi ptr [ %20, %ApplySortComparator.exit.thread51.thread92 ], [ %46, %57 ]
  %61 = phi ptr [ %22, %ApplySortComparator.exit.thread51.thread92 ], [ %47, %57 ]
  %62 = getelementptr inbounds nuw i8, ptr %3, i64 13
  %63 = load i8, ptr %62, align 1, !range !4, !noundef !5
  %64 = trunc nuw i8 %63 to i1
  br i1 %64, label %ApplySortComparator.exit34.thread, label %ApplySortComparator.exit34.thread58

65:                                               ; preds = %ApplySortComparator.exit.thread51.thread92, %57
  %66 = phi i64 [ %11, %ApplySortComparator.exit.thread51.thread92 ], [ %.pre88, %57 ]
  %67 = phi ptr [ %20, %ApplySortComparator.exit.thread51.thread92 ], [ %46, %57 ]
  %68 = phi i64 [ %21, %ApplySortComparator.exit.thread51.thread92 ], [ %58, %57 ]
  %69 = phi ptr [ %22, %ApplySortComparator.exit.thread51.thread92 ], [ %47, %57 ]
  %70 = getelementptr inbounds nuw i8, ptr %3, i64 24
  %71 = load ptr, ptr %70, align 8
  %72 = tail call i32 %71(i64 noundef %66, i64 noundef %68, ptr noundef nonnull %3) #13
  %73 = getelementptr inbounds nuw i8, ptr %3, i64 12
  %74 = load i8, ptr %73, align 4, !range !4, !noundef !5
  %75 = trunc nuw i8 %74 to i1
  br i1 %75, label %76, label %ApplySortComparator.exit34

76:                                               ; preds = %65
  %77 = icmp slt i32 %72, 0
  %78 = sub nsw i32 0, %72
  br i1 %77, label %ApplySortComparator.exit34.thread, label %ApplySortComparator.exit34

ApplySortComparator.exit34:                       ; preds = %76, %65
  %.0.i31 = phi i32 [ %78, %76 ], [ %72, %65 ]
  %79 = icmp slt i32 %.0.i31, 0
  br i1 %79, label %ApplySortComparator.exit34.thread58, label %ApplySortComparator.exit34.thread

ApplySortComparator.exit34.thread:                ; preds = %ApplySortComparator.exit.thread51.thread, %59, %76, %51, %50, %ApplySortComparator.exit34
  %80 = phi ptr [ %61, %59 ], [ %69, %76 ], [ %53, %51 ], [ %47, %50 ], [ %69, %ApplySortComparator.exit34 ], [ %31, %ApplySortComparator.exit.thread51.thread ]
  %81 = phi ptr [ %60, %59 ], [ %67, %76 ], [ %52, %51 ], [ %46, %50 ], [ %67, %ApplySortComparator.exit34 ], [ %30, %ApplySortComparator.exit.thread51.thread ]
  %82 = load i64, ptr %5, align 8
  %83 = load i8, ptr %7, align 8, !range !4, !noundef !5
  %84 = trunc nuw i8 %83 to i1
  %85 = load i64, ptr %81, align 8
  %86 = load i8, ptr %80, align 8, !range !4, !noundef !5
  %87 = trunc nuw i8 %86 to i1
  br i1 %84, label %88, label %93

88:                                               ; preds = %ApplySortComparator.exit34.thread
  br i1 %87, label %ApplySortComparator.exit34.thread58, label %89

89:                                               ; preds = %88
  %90 = getelementptr inbounds nuw i8, ptr %3, i64 13
  %91 = load i8, ptr %90, align 1, !range !4, !noundef !5
  %92 = trunc nuw i8 %91 to i1
  br i1 %92, label %ApplySortComparator.exit38.thread66, label %ApplySortComparator.exit34.thread58

93:                                               ; preds = %ApplySortComparator.exit34.thread
  br i1 %87, label %94, label %98

94:                                               ; preds = %93
  %95 = getelementptr inbounds nuw i8, ptr %3, i64 13
  %96 = load i8, ptr %95, align 1, !range !4, !noundef !5
  %97 = trunc nuw i8 %96 to i1
  br i1 %97, label %ApplySortComparator.exit34.thread58, label %ApplySortComparator.exit38.thread66

98:                                               ; preds = %93
  %99 = getelementptr inbounds nuw i8, ptr %3, i64 24
  %100 = load ptr, ptr %99, align 8
  %101 = tail call i32 %100(i64 noundef %82, i64 noundef %85, ptr noundef nonnull %3) #13
  %102 = getelementptr inbounds nuw i8, ptr %3, i64 12
  %103 = load i8, ptr %102, align 4, !range !4, !noundef !5
  %104 = trunc nuw i8 %103 to i1
  br i1 %104, label %105, label %ApplySortComparator.exit38

105:                                              ; preds = %98
  %106 = icmp slt i32 %101, 0
  %107 = sub nsw i32 0, %101
  br i1 %106, label %ApplySortComparator.exit34.thread58, label %ApplySortComparator.exit38

ApplySortComparator.exit38:                       ; preds = %105, %98
  %.0.i35 = phi i32 [ %107, %105 ], [ %101, %98 ]
  %.0.i35.fr = freeze i32 %.0.i35
  %108 = icmp slt i32 %.0.i35.fr, 0
  br i1 %108, label %ApplySortComparator.exit38.thread66, label %ApplySortComparator.exit34.thread58

ApplySortComparator.exit38.thread66:              ; preds = %89, %94, %ApplySortComparator.exit38
  br label %ApplySortComparator.exit34.thread58

ApplySortComparator.exit.thread.thread:           ; preds = %26, %15
  %109 = getelementptr inbounds nuw i8, ptr %2, i64 8
  %110 = load i64, ptr %109, align 8
  %111 = getelementptr inbounds nuw i8, ptr %2, i64 16
  %112 = load i8, ptr %111, align 8, !range !4, !noundef !5
  %113 = trunc nuw i8 %112 to i1
  br i1 %113, label %ApplySortComparator.exit42.thread74, label %123

ApplySortComparator.exit.thread:                  ; preds = %.ApplySortComparator.exit.thread_crit_edge, %ApplySortComparator.exit
  %114 = phi i8 [ %.pre, %.ApplySortComparator.exit.thread_crit_edge ], [ %.pre89, %ApplySortComparator.exit ]
  %115 = phi i64 [ %.pre87, %.ApplySortComparator.exit.thread_crit_edge ], [ %.pre88, %ApplySortComparator.exit ]
  %116 = trunc nuw i8 %114 to i1
  %117 = getelementptr inbounds nuw i8, ptr %2, i64 8
  %118 = load i64, ptr %117, align 8
  %119 = getelementptr inbounds nuw i8, ptr %2, i64 16
  %120 = load i8, ptr %119, align 8, !range !4, !noundef !5
  %121 = trunc nuw i8 %120 to i1
  br i1 %116, label %122, label %129

122:                                              ; preds = %ApplySortComparator.exit.thread
  br i1 %121, label %ApplySortComparator.exit42.thread74, label %123

123:                                              ; preds = %ApplySortComparator.exit.thread.thread, %122
  %124 = phi i64 [ %110, %ApplySortComparator.exit.thread.thread ], [ %118, %122 ]
  %125 = phi i8 [ 0, %ApplySortComparator.exit.thread.thread ], [ %120, %122 ]
  %126 = getelementptr inbounds nuw i8, ptr %3, i64 13
  %127 = load i8, ptr %126, align 1, !range !4, !noundef !5
  %128 = trunc nuw i8 %127 to i1
  br i1 %128, label %ApplySortComparator.exit42.thread74, label %ApplySortComparator.exit34.thread58

129:                                              ; preds = %ApplySortComparator.exit.thread
  br i1 %121, label %130, label %136

130:                                              ; preds = %ApplySortComparator.exit.thread.thread93, %129
  %131 = phi i64 [ %21, %ApplySortComparator.exit.thread.thread93 ], [ %118, %129 ]
  %132 = phi i8 [ 1, %ApplySortComparator.exit.thread.thread93 ], [ %120, %129 ]
  %133 = getelementptr inbounds nuw i8, ptr %3, i64 13
  %134 = load i8, ptr %133, align 1, !range !4, !noundef !5
  %135 = trunc nuw i8 %134 to i1
  br i1 %135, label %ApplySortComparator.exit34.thread58, label %ApplySortComparator.exit42.thread74

136:                                              ; preds = %ApplySortComparator.exit.thread.thread93, %129
  %137 = phi i64 [ %11, %ApplySortComparator.exit.thread.thread93 ], [ %115, %129 ]
  %138 = phi ptr [ %20, %ApplySortComparator.exit.thread.thread93 ], [ %117, %129 ]
  %139 = phi i64 [ %21, %ApplySortComparator.exit.thread.thread93 ], [ %118, %129 ]
  %140 = phi ptr [ %22, %ApplySortComparator.exit.thread.thread93 ], [ %119, %129 ]
  %141 = getelementptr inbounds nuw i8, ptr %3, i64 24
  %142 = load ptr, ptr %141, align 8
  %143 = tail call i32 %142(i64 noundef %137, i64 noundef %139, ptr noundef nonnull %3) #13
  %144 = getelementptr inbounds nuw i8, ptr %3, i64 12
  %145 = load i8, ptr %144, align 4, !range !4, !noundef !5
  %146 = trunc nuw i8 %145 to i1
  br i1 %146, label %147, label %ApplySortComparator.exit42

147:                                              ; preds = %136
  %148 = icmp slt i32 %143, 0
  %149 = sub nsw i32 0, %143
  br i1 %148, label %ApplySortComparator.exit34.thread58, label %ApplySortComparator.exit42

ApplySortComparator.exit42:                       ; preds = %147, %136
  %.0.i39 = phi i32 [ %149, %147 ], [ %143, %136 ]
  %150 = icmp sgt i32 %.0.i39, 0
  br i1 %150, label %ApplySortComparator.exit34.thread58, label %ApplySortComparator.exit42.ApplySortComparator.exit42.thread74_crit_edge

ApplySortComparator.exit42.ApplySortComparator.exit42.thread74_crit_edge: ; preds = %ApplySortComparator.exit42
  %.pre90 = load i64, ptr %138, align 8
  %.pre91 = load i8, ptr %140, align 8, !range !4
  br label %ApplySortComparator.exit42.thread74

ApplySortComparator.exit42.thread74:              ; preds = %ApplySortComparator.exit.thread.thread, %ApplySortComparator.exit42.ApplySortComparator.exit42.thread74_crit_edge, %123, %130, %122
  %151 = phi i8 [ %.pre91, %ApplySortComparator.exit42.ApplySortComparator.exit42.thread74_crit_edge ], [ %125, %123 ], [ %132, %130 ], [ %120, %122 ], [ 1, %ApplySortComparator.exit.thread.thread ]
  %152 = phi i64 [ %.pre90, %ApplySortComparator.exit42.ApplySortComparator.exit42.thread74_crit_edge ], [ %124, %123 ], [ %131, %130 ], [ %118, %122 ], [ %110, %ApplySortComparator.exit.thread.thread ]
  %153 = load i64, ptr %5, align 8
  %154 = load i8, ptr %7, align 8, !range !4, !noundef !5
  %155 = trunc nuw i8 %154 to i1
  %156 = trunc nuw i8 %151 to i1
  br i1 %155, label %157, label %162

157:                                              ; preds = %ApplySortComparator.exit42.thread74
  br i1 %156, label %ApplySortComparator.exit34.thread58, label %158

158:                                              ; preds = %157
  %159 = getelementptr inbounds nuw i8, ptr %3, i64 13
  %160 = load i8, ptr %159, align 1, !range !4, !noundef !5
  %161 = trunc nuw i8 %160 to i1
  br i1 %161, label %ApplySortComparator.exit46.thread83, label %ApplySortComparator.exit34.thread58

162:                                              ; preds = %ApplySortComparator.exit42.thread74
  br i1 %156, label %163, label %167

163:                                              ; preds = %162
  %164 = getelementptr inbounds nuw i8, ptr %3, i64 13
  %165 = load i8, ptr %164, align 1, !range !4, !noundef !5
  %166 = trunc nuw i8 %165 to i1
  br i1 %166, label %ApplySortComparator.exit34.thread58, label %ApplySortComparator.exit46.thread83

167:                                              ; preds = %162
  %168 = getelementptr inbounds nuw i8, ptr %3, i64 24
  %169 = load ptr, ptr %168, align 8
  %170 = tail call i32 %169(i64 noundef %153, i64 noundef %152, ptr noundef nonnull %3) #13
  %171 = getelementptr inbounds nuw i8, ptr %3, i64 12
  %172 = load i8, ptr %171, align 4, !range !4, !noundef !5
  %173 = trunc nuw i8 %172 to i1
  br i1 %173, label %174, label %ApplySortComparator.exit46

174:                                              ; preds = %167
  %175 = icmp slt i32 %170, 0
  %176 = sub nsw i32 0, %170
  br i1 %175, label %ApplySortComparator.exit34.thread58, label %ApplySortComparator.exit46

ApplySortComparator.exit46:                       ; preds = %174, %167
  %.0.i43 = phi i32 [ %176, %174 ], [ %170, %167 ]
  %.0.i43.fr = freeze i32 %.0.i43
  %177 = icmp slt i32 %.0.i43.fr, 0
  br i1 %177, label %ApplySortComparator.exit46.thread83, label %ApplySortComparator.exit34.thread58

ApplySortComparator.exit46.thread83:              ; preds = %158, %163, %ApplySortComparator.exit46
  br label %ApplySortComparator.exit34.thread58

ApplySortComparator.exit34.thread58:              ; preds = %163, %174, %158, %157, %130, %147, %123, %94, %105, %89, %88, %51, %59, %ApplySortComparator.exit46.thread83, %ApplySortComparator.exit46, %ApplySortComparator.exit38.thread66, %ApplySortComparator.exit38, %ApplySortComparator.exit42, %ApplySortComparator.exit34
  %178 = phi ptr [ %1, %ApplySortComparator.exit34 ], [ %1, %ApplySortComparator.exit42 ], [ %2, %ApplySortComparator.exit38.thread66 ], [ %0, %ApplySortComparator.exit38 ], [ %0, %ApplySortComparator.exit46.thread83 ], [ %2, %ApplySortComparator.exit46 ], [ %1, %59 ], [ %1, %51 ], [ %0, %88 ], [ %0, %89 ], [ %0, %105 ], [ %0, %94 ], [ %1, %123 ], [ %1, %147 ], [ %1, %130 ], [ %2, %157 ], [ %2, %158 ], [ %2, %174 ], [ %2, %163 ]
  ret ptr %178
}